target datalayout = "e-m:e-p270:32:32-p271:32:32-p272:64:64-i64:64-i128:128-f80:128-n8:16:32:64-S128"
target triple = "x86_64-pc-linux-gnu"

%struct.pg_prng_state = type { i64, i64 }

; Function Attrs: nounwind uwtable
define zeroext i1 @pg_prng_seed_check(ptr noundef %0) #0 {
  %2 = alloca ptr, align 8
  store ptr %0, ptr %2, align 8
  %3 = load ptr, ptr %2, align 8
  %4 = getelementptr inbounds nuw %struct.pg_prng_state, ptr %3, i32 0, i32 0
  %5 = load i64, ptr %4, align 8
  %6 = icmp eq i64 %5, 0
  br i1 %6, label %7, label %12

7:                                                ; preds = %1
  %8 = load ptr, ptr %2, align 8
  %9 = getelementptr inbounds nuw %struct.pg_prng_state, ptr %8, i32 0, i32 1
  %10 = load i64, ptr %9, align 8
  %11 = icmp eq i64 %10, 0
  br label %12

12:                                               ; preds = %7, %1
  %13 = phi i1 [ false, %1 ], [ %11, %7 ]
  %14 = zext i1 %13 to i32
  %15 = icmp ne i32 %14, 0
  %16 = zext i1 %15 to i32
  %17 = sext i32 %16 to i64
  %18 = call i64 @llvm.expect.i64(i64 %17, i64 0)
  %19 = icmp ne i64 %18, 0
  br i1 %19, label %20, label %25

20:                                               ; preds = %12
  %21 = load ptr, ptr %2, align 8
  %22 = getelementptr inbounds nuw %struct.pg_prng_state, ptr %21, i32 0, i32 0
  store i64 6364136223846793005, ptr %22, align 8
  %23 = load ptr, ptr %2, align 8
  %24 = getelementptr inbounds nuw %struct.pg_prng_state, ptr %23, i32 0, i32 1
  store i64 1442695040888963407, ptr %24, align 8
  br label %25

25:                                               ; preds = %20, %12
  ret i1 true
}