; Function Attrs: mustprogress nofree norecurse nosync nounwind willreturn memory(argmem: readwrite) uwtable
define noundef zeroext i1 @pg_prng_seed_check(ptr noundef captures(none) %0) local_unnamed_addr #1 {
  %2 = load i64, ptr %0, align 8
  %3 = icmp eq i64 %2, 0
  br i1 %3, label %4, label %.critedge

4:                                                ; preds = %1
  %5 = getelementptr inbounds nuw i8, ptr %0, i64 8
  %6 = load i64, ptr %5, align 8
  %7 = icmp eq i64 %6, 0
  br i1 %7, label %8, label %.critedge, !prof !4

8:                                                ; preds = %4
  store i64 6364136223846793005, ptr %0, align 8
  store i64 1442695040888963407, ptr %5, align 8
  br label %.critedge

.critedge:                                        ; preds = %1, %8, %4
  ret i1 true
}